target datalayout = "e-m:e-p270:32:32-p271:32:32-p272:64:64-i64:64-i128:128-f80:128-n8:16:32:64-S128"
target triple = "x86_64-pc-linux-gnu"

%"class.std::__cxx11::basic_string" = type { %"struct.std::__cxx11::basic_string<char>::_Alloc_hider", i64, %union.anon }
%"struct.std::__cxx11::basic_string<char>::_Alloc_hider" = type { ptr }
%union.anon = type { i64, [8 x i8] }

; Function Attrs: mustprogress nounwind uwtable
define available_externally noundef ptr @_ZNKSt7__cxx1112basic_stringIcSt11char_traitsIcESaIcEE7_M_dataEv(ptr noundef nonnull align 8 dereferenceable(32) %0) #4 align 2 {
  %2 = alloca ptr, align 8
  store ptr %0, ptr %2, align 8, !tbaa !17
  %3 = load ptr, ptr %2, align 8
  %4 = getelementptr inbounds nuw %"class.std::__cxx11::basic_string", ptr %3, i32 0, i32 0
  %5 = getelementptr inbounds nuw %"struct.std::__cxx11::basic_string<char>::_Alloc_hider", ptr %4, i32 0, i32 0
  %6 = load ptr, ptr %5, align 8, !tbaa !147
  ret ptr %6
}

; Function Attrs: mustprogress nounwind uwtable
define available_externally noundef ptr @_ZNKSt7__cxx1112basic_stringIcSt11char_traitsIcESaIcEE5c_strEv(ptr noundef nonnull align 8 dereferenceable(32) %0) #4 align 2 {
  %2 = alloca ptr, align 8
  store ptr %0, ptr %2, align 8, !tbaa !17
  %3 = load ptr, ptr %2, align 8
  %4 = call noundef ptr @_ZNKSt7__cxx1112basic_stringIcSt11char_traitsIcESaIcEE7_M_dataEv(ptr noundef nonnull align 8 dereferenceable(32) %3)
  ret ptr %4
}

; Function Attrs: mustprogress nounwind uwtable
define available_externally noundef i64 @_ZNKSt7__cxx1112basic_stringIcSt11char_traitsIcESaIcEE4sizeEv(ptr noundef nonnull align 8 dereferenceable(32) %0) #4 align 2 {
  %2 = alloca ptr, align 8
  store ptr %0, ptr %2, align 8, !tbaa !17
  %3 = load ptr, ptr %2, align 8
  %4 = getelementptr inbounds nuw %"class.std::__cxx11::basic_string", ptr %3, i32 0, i32 1
  %5 = load i64, ptr %4, align 8, !tbaa !36
  ret i64 %5
}

; Function Attrs: mustprogress uwtable
define dso_local noundef double @_ZN7VString11parseDoubleERKNSt7__cxx1112basic_stringIcSt11char_traitsIcESaIcEEEPb(ptr noundef nonnull align 8 dereferenceable(32) %0, ptr noundef %1) #5 align 2 {
  %3 = alloca ptr, align 8
  %4 = alloca ptr, align 8
  %5 = alloca ptr, align 8
  %6 = alloca ptr, align 8
  %7 = alloca ptr, align 8
  %8 = alloca ptr, align 8
  %9 = alloca double, align 8
  %10 = alloca i64, align 8
  store ptr %0, ptr %3, align 8, !tbaa !17
  store ptr %1, ptr %4, align 8, !tbaa !39
  call void @llvm.lifetime.start.p0(i64 8, ptr %5) #3
  %11 = load ptr, ptr %3, align 8, !tbaa !17
  %12 = call noundef i64 @_ZNKSt7__cxx1112basic_stringIcSt11char_traitsIcESaIcEE4sizeEv(ptr noundef nonnull align 8 dereferenceable(32) %11) #3
  %13 = add i64 %12, 1
  %14 = call noalias noundef nonnull ptr @_Znam(i64 noundef %13) #21
  store ptr %14, ptr %5, align 8, !tbaa !9
  call void @llvm.lifetime.start.p0(i64 8, ptr %6) #3
  %15 = load ptr, ptr %5, align 8, !tbaa !9
  store ptr %15, ptr %6, align 8, !tbaa !9
  %16 = load ptr, ptr %4, align 8, !tbaa !39
  %17 = icmp ne ptr %16, null
  br i1 %17, label %18, label %20

18:                                               ; preds = %2
  %19 = load ptr, ptr %4, align 8, !tbaa !39
  store i8 1, ptr %19, align 1, !tbaa !29
  br label %20

20:                                               ; preds = %18, %2
  call void @llvm.lifetime.start.p0(i64 8, ptr %7) #3
  %21 = load ptr, ptr %3, align 8, !tbaa !17
  %22 = call noundef ptr @_ZNKSt7__cxx1112basic_stringIcSt11char_traitsIcESaIcEE5c_strEv(ptr noundef nonnull align 8 dereferenceable(32) %21) #3
  store ptr %22, ptr %7, align 8, !tbaa !9
  br label %23

23:                                               ; preds = %39, %20
  %24 = load ptr, ptr %7, align 8, !tbaa !9
  %25 = load i8, ptr %24, align 1, !tbaa !11
  %26 = icmp ne i8 %25, 0
  br i1 %26, label %28, label %27

27:                                               ; preds = %23
  call void @llvm.lifetime.end.p0(i64 8, ptr %7) #3
  br label %42

28:                                               ; preds = %23
  %29 = load ptr, ptr %7, align 8, !tbaa !9
  %30 = load i8, ptr %29, align 1, !tbaa !11
  %31 = sext i8 %30 to i32
  %32 = icmp ne i32 %31, 95
  br i1 %32, label %33, label %38

33:                                               ; preds = %28
  %34 = load ptr, ptr %7, align 8, !tbaa !9
  %35 = load i8, ptr %34, align 1, !tbaa !11
  %36 = load ptr, ptr %6, align 8, !tbaa !9
  %37 = getelementptr inbounds nuw i8, ptr %36, i32 1
  store ptr %37, ptr %6, align 8, !tbaa !9
  store i8 %35, ptr %36, align 1, !tbaa !11
  br label %38

38:                                               ; preds = %33, %28
  br label %39

39:                                               ; preds = %38
  %40 = load ptr, ptr %7, align 8, !tbaa !9
  %41 = getelementptr inbounds nuw i8, ptr %40, i32 1
  store ptr %41, ptr %7, align 8, !tbaa !9
  br label %23, !llvm.loop !41

42:                                               ; preds = %27
  %43 = load ptr, ptr %6, align 8, !tbaa !9
  %44 = getelementptr inbounds nuw i8, ptr %43, i32 1
  store ptr %44, ptr %6, align 8, !tbaa !9
  store i8 0, ptr %43, align 1, !tbaa !11
  call void @llvm.lifetime.start.p0(i64 8, ptr %8) #3
  %45 = load ptr, ptr %5, align 8, !tbaa !9
  store ptr %45, ptr %8, align 8, !tbaa !9
  call void @llvm.lifetime.start.p0(i64 8, ptr %9) #3
  %46 = load ptr, ptr %5, align 8, !tbaa !9
  %47 = call double @strtod(ptr noundef %46, ptr noundef %8) #3
  store double %47, ptr %9, align 8, !tbaa !42
  call void @llvm.lifetime.start.p0(i64 8, ptr %10) #3
  %48 = load ptr, ptr %8, align 8, !tbaa !9
  %49 = load ptr, ptr %5, align 8, !tbaa !9
  %50 = ptrtoint ptr %48 to i64
  %51 = ptrtoint ptr %49 to i64
  %52 = sub i64 %50, %51
  store i64 %52, ptr %10, align 8, !tbaa !27
  %53 = load i64, ptr %10, align 8, !tbaa !27
  %54 = load ptr, ptr %5, align 8, !tbaa !9
  %55 = call i64 @strlen(ptr noundef %54) #20
  %56 = icmp ne i64 %53, %55
  br i1 %56, label %57, label %63

57:                                               ; preds = %42
  %58 = load ptr, ptr %4, align 8, !tbaa !39
  %59 = icmp ne ptr %58, null
  br i1 %59, label %60, label %62

60:                                               ; preds = %57
  %61 = load ptr, ptr %4, align 8, !tbaa !39
  store i8 0, ptr %61, align 1, !tbaa !29
  br label %62

62:                                               ; preds = %60, %57
  br label %63

63:                                               ; preds = %62, %42
  br label %64

64:                                               ; preds = %63
  br label %65

65:                                               ; preds = %64
  %66 = load ptr, ptr %5, align 8, !tbaa !9
  %67 = icmp eq ptr %66, null
  br i1 %67, label %69, label %68

68:                                               ; preds = %65
  call void @_ZdaPv(ptr noundef %66) #22
  br label %69

69:                                               ; preds = %68, %65
  br label %70

70:                                               ; preds = %69
  br label %71

71:                                               ; preds = %70
  br label %72

72:                                               ; preds = %71
  store ptr null, ptr %5, align 8, !tbaa !44
  br label %73

73:                                               ; preds = %72
  br label %74

74:                                               ; preds = %73
  br label %75

75:                                               ; preds = %74
  br label %76

76:                                               ; preds = %75
  %77 = load double, ptr %9, align 8, !tbaa !42
  call void @llvm.lifetime.end.p0(i64 8, ptr %10) #3
  call void @llvm.lifetime.end.p0(i64 8, ptr %9) #3
  call void @llvm.lifetime.end.p0(i64 8, ptr %8) #3
  call void @llvm.lifetime.end.p0(i64 8, ptr %6) #3
  call void @llvm.lifetime.end.p0(i64 8, ptr %5) #3
  ret double %77
}