; Function Attrs: mustprogress uwtable
define dso_local noundef double @_ZN7VString11parseDoubleERKNSt7__cxx1112basic_stringIcSt11char_traitsIcESaIcEEEPb(ptr noundef nonnull readonly align 8 captures(none) dereferenceable(32) %0, ptr noundef writeonly captures(address_is_null) %1) local_unnamed_addr #6 align 2 {
  %3 = alloca ptr, align 8
  %4 = getelementptr inbounds nuw i8, ptr %0, i64 8
  %5 = load i64, ptr %4, align 8, !tbaa !24
  %6 = add i64 %5, 1
  %7 = tail call noalias noundef nonnull ptr @_Znam(i64 noundef %6) #35
  %8 = icmp ne ptr %1, null
  br i1 %8, label %9, label %10

9:                                                ; preds = %2
  store i8 1, ptr %1, align 1, !tbaa !30
  br label %10

10:                                               ; preds = %9, %2
  %11 = load ptr, ptr %0, align 8, !tbaa !19
  br label %12

12:                                               ; preds = %24, %10
  %.020 = phi ptr [ %11, %10 ], [ %25, %24 ]
  %.0 = phi ptr [ %7, %10 ], [ %.1, %24 ]
  %13 = load i8, ptr %.020, align 1, !tbaa !13
  switch i8 %13, label %22 [
    i8 0, label %14
    i8 95, label %24
  ]

14:                                               ; preds = %12
  store i8 0, ptr %.0, align 1, !tbaa !13
  call void @llvm.lifetime.start.p0(i64 8, ptr nonnull %3) #31
  store ptr %7, ptr %3, align 8, !tbaa !32
  %15 = call double @strtod(ptr noundef nonnull %7, ptr noundef nonnull %3) #31
  %16 = load ptr, ptr %3, align 8, !tbaa !32
  %17 = ptrtoint ptr %16 to i64
  %18 = ptrtoint ptr %7 to i64
  %19 = sub i64 %17, %18
  %20 = tail call i64 @strlen(ptr noundef nonnull dereferenceable(1) %7) #34
  %21 = icmp ne i64 %19, %20
  %or.cond = and i1 %8, %21
  br i1 %or.cond, label %26, label %27

22:                                               ; preds = %12
  %23 = getelementptr inbounds nuw i8, ptr %.0, i64 1
  store i8 %13, ptr %.0, align 1, !tbaa !13
  br label %24

24:                                               ; preds = %12, %22
  %.1 = phi ptr [ %23, %22 ], [ %.0, %12 ]
  %25 = getelementptr inbounds nuw i8, ptr %.020, i64 1
  br label %12, !llvm.loop !33

26:                                               ; preds = %14
  store i8 0, ptr %1, align 1, !tbaa !30
  br label %27

27:                                               ; preds = %14, %26
  tail call void @_ZdaPv(ptr noundef nonnull %7) #33
  call void @llvm.lifetime.end.p0(i64 8, ptr nonnull %3) #31
  ret double %15
}